; Function Attrs: nounwind uwtable
define ptr @l_Lean_Meta_Grind_Arith_CommRing_throwNoNatZeroDivisors___rarg___boxed(ptr noundef %0, ptr noundef %1, ptr noundef %2, ptr noundef %3, ptr noundef %4, ptr noundef %5, ptr noundef %6, ptr noundef %7, ptr noundef %8, ptr noundef %9) #1 {
  %11 = tail call ptr @l_Lean_Meta_Grind_Arith_CommRing_throwNoNatZeroDivisors___rarg(ptr noundef %0, ptr noundef %1, ptr noundef %2, ptr noundef %3, ptr noundef %4, ptr noundef %5, ptr noundef %6, ptr noundef %7, ptr noundef %8, ptr noundef %9)
  %12 = ptrtoint ptr %8 to i64
  %13 = and i64 %12, 1
  %.not = icmp eq i64 %13, 0
  br i1 %.not, label %14, label %lean_dec.exit27

14:                                               ; preds = %10
  %15 = load i32, ptr %8, align 4, !tbaa !6
  %16 = icmp sgt i32 %15, 1
  br i1 %16, label %17, label %19, !prof !5

17:                                               ; preds = %14
  %18 = add nsw i32 %15, -1
  store i32 %18, ptr %8, align 4, !tbaa !6
  br label %lean_dec.exit27

19:                                               ; preds = %14
  %.not.i = icmp eq i32 %15, 0
  br i1 %.not.i, label %lean_dec.exit27, label %20

20:                                               ; preds = %19
  tail call void @lean_dec_ref_cold(ptr noundef nonnull %8) #6
  br label %lean_dec.exit27

lean_dec.exit27:                                  ; preds = %20, %19, %17, %10
  %21 = ptrtoint ptr %7 to i64
  %22 = and i64 %21, 1
  %.not44 = icmp eq i64 %22, 0
  br i1 %.not44, label %23, label %lean_dec.exit26

23:                                               ; preds = %lean_dec.exit27
  %24 = load i32, ptr %7, align 4, !tbaa !6
  %25 = icmp sgt i32 %24, 1
  br i1 %25, label %26, label %28, !prof !5

26:                                               ; preds = %23
  %27 = add nsw i32 %24, -1
  store i32 %27, ptr %7, align 4, !tbaa !6
  br label %lean_dec.exit26

28:                                               ; preds = %23
  %.not.i28 = icmp eq i32 %24, 0
  br i1 %.not.i28, label %lean_dec.exit26, label %29

29:                                               ; preds = %28
  tail call void @lean_dec_ref_cold(ptr noundef nonnull %7) #6
  br label %lean_dec.exit26

lean_dec.exit26:                                  ; preds = %29, %28, %26, %lean_dec.exit27
  %30 = ptrtoint ptr %6 to i64
  %31 = and i64 %30, 1
  %.not45 = icmp eq i64 %31, 0
  br i1 %.not45, label %32, label %lean_dec.exit25

32:                                               ; preds = %lean_dec.exit26
  %33 = load i32, ptr %6, align 4, !tbaa !6
  %34 = icmp sgt i32 %33, 1
  br i1 %34, label %35, label %37, !prof !5

35:                                               ; preds = %32
  %36 = add nsw i32 %33, -1
  store i32 %36, ptr %6, align 4, !tbaa !6
  br label %lean_dec.exit25

37:                                               ; preds = %32
  %.not.i30 = icmp eq i32 %33, 0
  br i1 %.not.i30, label %lean_dec.exit25, label %38

38:                                               ; preds = %37
  tail call void @lean_dec_ref_cold(ptr noundef nonnull %6) #6
  br label %lean_dec.exit25

lean_dec.exit25:                                  ; preds = %38, %37, %35, %lean_dec.exit26
  %39 = ptrtoint ptr %5 to i64
  %40 = and i64 %39, 1
  %.not46 = icmp eq i64 %40, 0
  br i1 %.not46, label %41, label %lean_dec.exit24

41:                                               ; preds = %lean_dec.exit25
  %42 = load i32, ptr %5, align 4, !tbaa !6
  %43 = icmp sgt i32 %42, 1
  br i1 %43, label %44, label %46, !prof !5

44:                                               ; preds = %41
  %45 = add nsw i32 %42, -1
  store i32 %45, ptr %5, align 4, !tbaa !6
  br label %lean_dec.exit24

46:                                               ; preds = %41
  %.not.i32 = icmp eq i32 %42, 0
  br i1 %.not.i32, label %lean_dec.exit24, label %47

47:                                               ; preds = %46
  tail call void @lean_dec_ref_cold(ptr noundef nonnull %5) #6
  br label %lean_dec.exit24

lean_dec.exit24:                                  ; preds = %47, %46, %44, %lean_dec.exit25
  %48 = ptrtoint ptr %4 to i64
  %49 = and i64 %48, 1
  %.not47 = icmp eq i64 %49, 0
  br i1 %.not47, label %50, label %lean_dec.exit23

50:                                               ; preds = %lean_dec.exit24
  %51 = load i32, ptr %4, align 4, !tbaa !6
  %52 = icmp sgt i32 %51, 1
  br i1 %52, label %53, label %55, !prof !5

53:                                               ; preds = %50
  %54 = add nsw i32 %51, -1
  store i32 %54, ptr %4, align 4, !tbaa !6
  br label %lean_dec.exit23

55:                                               ; preds = %50
  %.not.i34 = icmp eq i32 %51, 0
  br i1 %.not.i34, label %lean_dec.exit23, label %56

56:                                               ; preds = %55
  tail call void @lean_dec_ref_cold(ptr noundef nonnull %4) #6
  br label %lean_dec.exit23

lean_dec.exit23:                                  ; preds = %56, %55, %53, %lean_dec.exit24
  %57 = ptrtoint ptr %3 to i64
  %58 = and i64 %57, 1
  %.not48 = icmp eq i64 %58, 0
  br i1 %.not48, label %59, label %lean_dec.exit22

59:                                               ; preds = %lean_dec.exit23
  %60 = load i32, ptr %3, align 4, !tbaa !6
  %61 = icmp sgt i32 %60, 1
  br i1 %61, label %62, label %64, !prof !5

62:                                               ; preds = %59
  %63 = add nsw i32 %60, -1
  store i32 %63, ptr %3, align 4, !tbaa !6
  br label %lean_dec.exit22

64:                                               ; preds = %59
  %.not.i36 = icmp eq i32 %60, 0
  br i1 %.not.i36, label %lean_dec.exit22, label %65

65:                                               ; preds = %64
  tail call void @lean_dec_ref_cold(ptr noundef nonnull %3) #6
  br label %lean_dec.exit22

lean_dec.exit22:                                  ; preds = %65, %64, %62, %lean_dec.exit23
  %66 = ptrtoint ptr %2 to i64
  %67 = and i64 %66, 1
  %.not49 = icmp eq i64 %67, 0
  br i1 %.not49, label %68, label %lean_dec.exit21

68:                                               ; preds = %lean_dec.exit22
  %69 = load i32, ptr %2, align 4, !tbaa !6
  %70 = icmp sgt i32 %69, 1
  br i1 %70, label %71, label %73, !prof !5

71:                                               ; preds = %68
  %72 = add nsw i32 %69, -1
  store i32 %72, ptr %2, align 4, !tbaa !6
  br label %lean_dec.exit21

73:                                               ; preds = %68
  %.not.i38 = icmp eq i32 %69, 0
  br i1 %.not.i38, label %lean_dec.exit21, label %74

74:                                               ; preds = %73
  tail call void @lean_dec_ref_cold(ptr noundef nonnull %2) #6
  br label %lean_dec.exit21

lean_dec.exit21:                                  ; preds = %74, %73, %71, %lean_dec.exit22
  %75 = ptrtoint ptr %1 to i64
  %76 = and i64 %75, 1
  %.not50 = icmp eq i64 %76, 0
  br i1 %.not50, label %77, label %lean_dec.exit20

77:                                               ; preds = %lean_dec.exit21
  %78 = load i32, ptr %1, align 4, !tbaa !6
  %79 = icmp sgt i32 %78, 1
  br i1 %79, label %80, label %82, !prof !5

80:                                               ; preds = %77
  %81 = add nsw i32 %78, -1
  store i32 %81, ptr %1, align 4, !tbaa !6
  br label %lean_dec.exit20

82:                                               ; preds = %77
  %.not.i40 = icmp eq i32 %78, 0
  br i1 %.not.i40, label %lean_dec.exit20, label %83

83:                                               ; preds = %82
  tail call void @lean_dec_ref_cold(ptr noundef nonnull %1) #6
  br label %lean_dec.exit20

lean_dec.exit20:                                  ; preds = %83, %82, %80, %lean_dec.exit21
  %84 = ptrtoint ptr %0 to i64
  %85 = and i64 %84, 1
  %.not51 = icmp eq i64 %85, 0
  br i1 %.not51, label %86, label %lean_dec.exit

86:                                               ; preds = %lean_dec.exit20
  %87 = load i32, ptr %0, align 4, !tbaa !6
  %88 = icmp sgt i32 %87, 1
  br i1 %88, label %89, label %91, !prof !5

89:                                               ; preds = %86
  %90 = add nsw i32 %87, -1
  store i32 %90, ptr %0, align 4, !tbaa !6
  br label %lean_dec.exit

91:                                               ; preds = %86
  %.not.i42 = icmp eq i32 %87, 0
  br i1 %.not.i42, label %lean_dec.exit, label %92

92:                                               ; preds = %91
  tail call void @lean_dec_ref_cold(ptr noundef nonnull %0) #6
  br label %lean_dec.exit

lean_dec.exit:                                    ; preds = %92, %91, %89, %lean_dec.exit20
  ret ptr %11
}